target datalayout = "e-m:e-p270:32:32-p271:32:32-p272:64:64-i64:64-i128:128-f80:128-n8:16:32:64-S128"
target triple = "x86_64-pc-linux-gnu"

%"class.duckdb::ColumnReader" = type { ptr, ptr, ptr, i64, i8, ptr, ptr, i64, i64, i64, %"class.duckdb::shared_ptr", %"class.duckdb::ResizeableBuffer", i32, %"class.duckdb::unique_ptr", %"class.duckdb::unique_ptr", %"class.duckdb::DictionaryDecoder", %"class.duckdb::DeltaBinaryPackedDecoder", %"class.duckdb::RLEDecoder", %"class.duckdb::DeltaLengthByteArrayDecoder", %"class.duckdb::DeltaByteArrayDecoder", %"class.duckdb::ByteStreamSplitDecoder", [2 x %"class.duckdb::ResizeableBuffer"] }
%"class.duckdb::shared_ptr" = type { %"class.std::shared_ptr" }
%"class.std::shared_ptr" = type { %"class.std::__shared_ptr" }
%"class.std::__shared_ptr" = type { ptr, %"class.std::__shared_count" }
%"class.std::__shared_count" = type { ptr }
%"class.duckdb::ResizeableBuffer" = type { %"class.duckdb::ByteBuffer", %"class.duckdb::AllocatedData", i64 }
%"class.duckdb::ByteBuffer" = type { ptr, i64 }
%"class.duckdb::AllocatedData" = type { %"class.duckdb::optional_ptr", ptr, i64 }
%"class.duckdb::optional_ptr" = type { ptr }
%"class.duckdb::unique_ptr" = type { %"class.std::unique_ptr" }
%"class.std::unique_ptr" = type { %"struct.std::__uniq_ptr_data" }
%"struct.std::__uniq_ptr_data" = type { %"class.std::__uniq_ptr_impl" }
%"class.std::__uniq_ptr_impl" = type { %"class.std::tuple" }
%"class.std::tuple" = type { %"struct.std::_Tuple_impl" }
%"struct.std::_Tuple_impl" = type { %"struct.std::_Head_base.1" }
%"struct.std::_Head_base.1" = type { ptr }
%"class.duckdb::DictionaryDecoder" = type { ptr, ptr, %"class.duckdb::unique_ptr", %"struct.duckdb::SelectionVector", %"struct.duckdb::SelectionVector", i64, %"class.duckdb::unique_ptr.6", %"class.duckdb::unique_ptr.15", i64, i8, %"class.std::__cxx11::basic_string" }
%"struct.duckdb::SelectionVector" = type { ptr, %"class.duckdb::shared_ptr.2" }
%"class.duckdb::shared_ptr.2" = type { %"class.std::shared_ptr.3" }
%"class.std::shared_ptr.3" = type { %"class.std::__shared_ptr.4" }
%"class.std::__shared_ptr.4" = type { ptr, %"class.std::__shared_count" }
%"class.duckdb::unique_ptr.6" = type { %"class.std::unique_ptr.7" }
%"class.std::unique_ptr.7" = type { %"struct.std::__uniq_ptr_data.8" }
%"struct.std::__uniq_ptr_data.8" = type { %"class.std::__uniq_ptr_impl.9" }
%"class.std::__uniq_ptr_impl.9" = type { %"class.std::tuple.10" }
%"class.std::tuple.10" = type { %"struct.std::_Tuple_impl.11" }
%"struct.std::_Tuple_impl.11" = type { %"struct.std::_Head_base.14" }
%"struct.std::_Head_base.14" = type { ptr }
%"class.duckdb::unique_ptr.15" = type { %"class.std::unique_ptr.16" }
%"class.std::unique_ptr.16" = type { %"struct.std::__uniq_ptr_data.17" }
%"struct.std::__uniq_ptr_data.17" = type { %"class.std::__uniq_ptr_impl.18" }
%"class.std::__uniq_ptr_impl.18" = type { %"class.std::tuple.19" }
%"class.std::tuple.19" = type { %"struct.std::_Tuple_impl.20" }
%"struct.std::_Tuple_impl.20" = type { %"struct.std::_Head_base.23" }
%"struct.std::_Head_base.23" = type { ptr }
%"class.std::__cxx11::basic_string" = type { %"struct.std::__cxx11::basic_string<char>::_Alloc_hider", i64, %union.anon }
%"struct.std::__cxx11::basic_string<char>::_Alloc_hider" = type { ptr }
%union.anon = type { i64, [8 x i8] }
%"class.duckdb::DeltaBinaryPackedDecoder" = type { ptr, ptr, %"class.duckdb::unique_ptr.24" }
%"class.duckdb::unique_ptr.24" = type { %"class.std::unique_ptr.25" }
%"class.std::unique_ptr.25" = type { %"struct.std::__uniq_ptr_data.26" }
%"struct.std::__uniq_ptr_data.26" = type { %"class.std::__uniq_ptr_impl.27" }
%"class.std::__uniq_ptr_impl.27" = type { %"class.std::tuple.28" }
%"class.std::tuple.28" = type { %"struct.std::_Tuple_impl.29" }
%"struct.std::_Tuple_impl.29" = type { %"struct.std::_Head_base.32" }
%"struct.std::_Head_base.32" = type { ptr }
%"class.duckdb::RLEDecoder" = type { ptr, ptr, %"class.duckdb::unique_ptr" }
%"class.duckdb::DeltaLengthByteArrayDecoder" = type { ptr, ptr, i64, i64 }
%"class.duckdb::DeltaByteArrayDecoder" = type { ptr, %"class.duckdb::unique_ptr.6", i64, i64 }
%"class.duckdb::ByteStreamSplitDecoder" = type { ptr, ptr, %"class.duckdb::unique_ptr.33" }
%"class.duckdb::unique_ptr.33" = type { %"class.std::unique_ptr.34" }
%"class.std::unique_ptr.34" = type { %"struct.std::__uniq_ptr_data.35" }
%"struct.std::__uniq_ptr_data.35" = type { %"class.std::__uniq_ptr_impl.36" }
%"class.std::__uniq_ptr_impl.36" = type { %"class.std::tuple.37" }
%"class.std::tuple.37" = type { %"struct.std::_Tuple_impl.38" }
%"struct.std::_Tuple_impl.38" = type { %"struct.std::_Head_base.41" }
%"struct.std::_Head_base.41" = type { ptr }
%"class.duckdb::vector.142" = type { %"class.std::vector.143" }
%"class.std::vector.143" = type { %"struct.std::_Vector_base.144" }
%"struct.std::_Vector_base.144" = type { %"struct.std::_Vector_base<std::__cxx11::basic_string<char>, std::allocator<std::__cxx11::basic_string<char>>>::_Vector_impl" }
%"struct.std::_Vector_base<std::__cxx11::basic_string<char>, std::allocator<std::__cxx11::basic_string<char>>>::_Vector_impl" = type { %"struct.std::_Vector_base<std::__cxx11::basic_string<char>, std::allocator<std::__cxx11::basic_string<char>>>::_Vector_impl_data" }
%"struct.std::_Vector_base<std::__cxx11::basic_string<char>, std::allocator<std::__cxx11::basic_string<char>>>::_Vector_impl_data" = type { ptr, ptr, ptr }
%"class.duckdb_parquet::ColumnChunk" = type <{ %"class.duckdb_apache::thrift::TBase", %"class.std::__cxx11::basic_string", i64, %"class.duckdb_parquet::ColumnMetaData", i64, i32, [4 x i8], i64, i32, [4 x i8], %"class.duckdb_parquet::ColumnCryptoMetaData", %"class.std::__cxx11::basic_string", %"struct.duckdb_parquet::_ColumnChunk__isset", [7 x i8] }>
%"class.duckdb_apache::thrift::TBase" = type { ptr }
%"class.duckdb_parquet::ColumnMetaData" = type <{ %"class.duckdb_apache::thrift::TBase", i32, [4 x i8], %"class.duckdb::vector.166", %"class.duckdb::vector.142", i32, [4 x i8], i64, i64, i64, %"class.duckdb::vector.172", i64, i64, i64, %"class.duckdb_parquet::Statistics", %"class.duckdb::vector.178", i64, i32, [4 x i8], %"class.duckdb_parquet::SizeStatistics", %"struct.duckdb_parquet::_ColumnMetaData__isset", [7 x i8] }>
%"class.duckdb::vector.166" = type { %"class.std::vector.167" }
%"class.std::vector.167" = type { %"struct.std::_Vector_base.168" }
%"struct.std::_Vector_base.168" = type { %"struct.std::_Vector_base<duckdb_parquet::Encoding::type, std::allocator<duckdb_parquet::Encoding::type>>::_Vector_impl" }
%"struct.std::_Vector_base<duckdb_parquet::Encoding::type, std::allocator<duckdb_parquet::Encoding::type>>::_Vector_impl" = type { %"struct.std::_Vector_base<duckdb_parquet::Encoding::type, std::allocator<duckdb_parquet::Encoding::type>>::_Vector_impl_data" }
%"struct.std::_Vector_base<duckdb_parquet::Encoding::type, std::allocator<duckdb_parquet::Encoding::type>>::_Vector_impl_data" = type { ptr, ptr, ptr }
%"class.duckdb::vector.172" = type { %"class.std::vector.173" }
%"class.std::vector.173" = type { %"struct.std::_Vector_base.174" }
%"struct.std::_Vector_base.174" = type { %"struct.std::_Vector_base<duckdb_parquet::KeyValue, std::allocator<duckdb_parquet::KeyValue>>::_Vector_impl" }
%"struct.std::_Vector_base<duckdb_parquet::KeyValue, std::allocator<duckdb_parquet::KeyValue>>::_Vector_impl" = type { %"struct.std::_Vector_base<duckdb_parquet::KeyValue, std::allocator<duckdb_parquet::KeyValue>>::_Vector_impl_data" }
%"struct.std::_Vector_base<duckdb_parquet::KeyValue, std::allocator<duckdb_parquet::KeyValue>>::_Vector_impl_data" = type { ptr, ptr, ptr }
%"class.duckdb_parquet::Statistics" = type <{ %"class.duckdb_apache::thrift::TBase", %"class.std::__cxx11::basic_string", %"class.std::__cxx11::basic_string", i64, i64, %"class.std::__cxx11::basic_string", %"class.std::__cxx11::basic_string", i8, i8, %"struct.duckdb_parquet::_Statistics__isset", [5 x i8] }>
%"struct.duckdb_parquet::_Statistics__isset" = type { i8 }
%"class.duckdb::vector.178" = type { %"class.std::vector.179" }
%"class.std::vector.179" = type { %"struct.std::_Vector_base.180" }
%"struct.std::_Vector_base.180" = type { %"struct.std::_Vector_base<duckdb_parquet::PageEncodingStats, std::allocator<duckdb_parquet::PageEncodingStats>>::_Vector_impl" }
%"struct.std::_Vector_base<duckdb_parquet::PageEncodingStats, std::allocator<duckdb_parquet::PageEncodingStats>>::_Vector_impl" = type { %"struct.std::_Vector_base<duckdb_parquet::PageEncodingStats, std::allocator<duckdb_parquet::PageEncodingStats>>::_Vector_impl_data" }
%"struct.std::_Vector_base<duckdb_parquet::PageEncodingStats, std::allocator<duckdb_parquet::PageEncodingStats>>::_Vector_impl_data" = type { ptr, ptr, ptr }
%"class.duckdb_parquet::SizeStatistics" = type <{ %"class.duckdb_apache::thrift::TBase", i64, %"class.duckdb::vector.184", %"class.duckdb::vector.184", %"struct.duckdb_parquet::_SizeStatistics__isset", [7 x i8] }>
%"class.duckdb::vector.184" = type { %"class.std::vector.185" }
%"class.std::vector.185" = type { %"struct.std::_Vector_base.186" }
%"struct.std::_Vector_base.186" = type { %"struct.std::_Vector_base<long, std::allocator<long>>::_Vector_impl" }
%"struct.std::_Vector_base<long, std::allocator<long>>::_Vector_impl" = type { %"struct.std::_Vector_base<long, std::allocator<long>>::_Vector_impl_data" }
%"struct.std::_Vector_base<long, std::allocator<long>>::_Vector_impl_data" = type { ptr, ptr, ptr }
%"struct.duckdb_parquet::_SizeStatistics__isset" = type { i8 }
%"struct.duckdb_parquet::_ColumnMetaData__isset" = type { i8 }
%"class.duckdb_parquet::ColumnCryptoMetaData" = type <{ %"class.duckdb_apache::thrift::TBase", %"class.duckdb_parquet::EncryptionWithFooterKey", %"class.duckdb_parquet::EncryptionWithColumnKey", %"struct.duckdb_parquet::_ColumnCryptoMetaData__isset", [7 x i8] }>
%"class.duckdb_parquet::EncryptionWithFooterKey" = type { %"class.duckdb_apache::thrift::TBase" }
%"class.duckdb_parquet::EncryptionWithColumnKey" = type <{ %"class.duckdb_apache::thrift::TBase", %"class.duckdb::vector.142", %"class.std::__cxx11::basic_string", %"struct.duckdb_parquet::_EncryptionWithColumnKey__isset", [7 x i8] }>
%"struct.duckdb_parquet::_EncryptionWithColumnKey__isset" = type { i8 }
%"struct.duckdb_parquet::_ColumnCryptoMetaData__isset" = type { i8 }
%"struct.duckdb_parquet::_ColumnChunk__isset" = type { i8 }
%"class.duckdb_parquet::PageHeader" = type <{ %"class.duckdb_apache::thrift::TBase", i32, i32, i32, i32, %"class.duckdb_parquet::DataPageHeader", %"class.duckdb_parquet::IndexPageHeader", %"class.duckdb_parquet::DictionaryPageHeader", %"class.duckdb_parquet::DataPageHeaderV2", %"struct.duckdb_parquet::_PageHeader__isset", [7 x i8] }>
%"class.duckdb_parquet::DataPageHeader" = type <{ %"class.duckdb_apache::thrift::TBase", i32, i32, i32, i32, %"class.duckdb_parquet::Statistics", %"struct.duckdb_parquet::_DataPageHeader__isset", [7 x i8] }>
%"struct.duckdb_parquet::_DataPageHeader__isset" = type { i8 }
%"class.duckdb_parquet::IndexPageHeader" = type { %"class.duckdb_apache::thrift::TBase" }
%"class.duckdb_parquet::DictionaryPageHeader" = type <{ %"class.duckdb_apache::thrift::TBase", i32, i32, i8, %"struct.duckdb_parquet::_DictionaryPageHeader__isset", [6 x i8] }>
%"struct.duckdb_parquet::_DictionaryPageHeader__isset" = type { i8 }
%"class.duckdb_parquet::DataPageHeaderV2" = type <{ %"class.duckdb_apache::thrift::TBase", i32, i32, i32, i32, i32, i32, i8, [7 x i8], %"class.duckdb_parquet::Statistics", %"struct.duckdb_parquet::_DataPageHeaderV2__isset", [7 x i8] }>
%"struct.duckdb_parquet::_DataPageHeaderV2__isset" = type { i8 }
%"struct.duckdb_parquet::_PageHeader__isset" = type { i8 }

@_ZTISt13runtime_error = external constant ptr
@.str.7 = private unnamed_addr constant [19 x i8] c"Page size mismatch\00", align 1

; Function Attrs: mustprogress uwtable
define void @_ZN6duckdb12ColumnReader11PreparePageERN14duckdb_parquet10PageHeaderE(ptr noundef nonnull align 8 dereferenceable(544) %0, ptr noundef nonnull align 8 dereferenceable(457) %1) #4 align 2 personality ptr @__gxx_personality_v0 {
  %3 = alloca ptr, align 8
  %4 = alloca ptr, align 8
  %5 = alloca ptr, align 8
  %6 = alloca i32, align 4
  store ptr %0, ptr %3, align 8, !tbaa !3
  store ptr %1, ptr %4, align 8, !tbaa !286
  %7 = load ptr, ptr %3, align 8
  %8 = load ptr, ptr %4, align 8, !tbaa !286
  %9 = getelementptr inbounds nuw %"class.duckdb_parquet::PageHeader", ptr %8, i32 0, i32 2
  %10 = load i32, ptr %9, align 4, !tbaa !336
  %11 = add nsw i32 %10, 1
  %12 = sext i32 %11 to i64
  call void @_ZN6duckdb12ColumnReader13AllocateBlockEm(ptr noundef nonnull align 8 dereferenceable(544) %7, i64 noundef %12)
  %13 = getelementptr inbounds nuw %"class.duckdb::ColumnReader", ptr %7, i32 0, i32 5
  %14 = load ptr, ptr %13, align 8, !tbaa !88
  %15 = getelementptr inbounds nuw %"class.duckdb_parquet::ColumnChunk", ptr %14, i32 0, i32 3
  %16 = getelementptr inbounds nuw %"class.duckdb_parquet::ColumnMetaData", ptr %15, i32 0, i32 5
  %17 = load i32, ptr %16, align 8, !tbaa !343
  %18 = icmp eq i32 %17, 0
  br i1 %18, label %19, label %47

19:                                               ; preds = %2
  %20 = load ptr, ptr %4, align 8, !tbaa !286
  %21 = getelementptr inbounds nuw %"class.duckdb_parquet::PageHeader", ptr %20, i32 0, i32 3
  %22 = load i32, ptr %21, align 8, !tbaa !307
  %23 = load ptr, ptr %4, align 8, !tbaa !286
  %24 = getelementptr inbounds nuw %"class.duckdb_parquet::PageHeader", ptr %23, i32 0, i32 2
  %25 = load i32, ptr %24, align 4, !tbaa !336
  %26 = icmp ne i32 %22, %25
  br i1 %26, label %27, label %34

27:                                               ; preds = %19
  %28 = call ptr @__cxa_allocate_exception(i64 16) #3
  invoke void @_ZNSt13runtime_errorC1EPKc(ptr noundef nonnull align 8 dereferenceable(16) %28, ptr noundef @.str.7)
          to label %29 unwind label %30

29:                                               ; preds = %27
  call void @__cxa_throw(ptr %28, ptr @_ZTISt13runtime_error, ptr @_ZNSt13runtime_errorD1Ev) #24
  unreachable

30:                                               ; preds = %27
  %31 = landingpad { ptr, i32 }
          cleanup
  %32 = extractvalue { ptr, i32 } %31, 0
  store ptr %32, ptr %5, align 8
  %33 = extractvalue { ptr, i32 } %31, 1
  store i32 %33, ptr %6, align 4
  call void @__cxa_free_exception(ptr %28) #3
  br label %85

34:                                               ; preds = %19
  %35 = getelementptr inbounds nuw %"class.duckdb::ColumnReader", ptr %7, i32 0, i32 2
  %36 = load ptr, ptr %35, align 8, !tbaa !112
  %37 = getelementptr inbounds nuw %"class.duckdb::ColumnReader", ptr %7, i32 0, i32 6
  %38 = load ptr, ptr %37, align 8, !tbaa !267
  %39 = getelementptr inbounds nuw %"class.duckdb::ColumnReader", ptr %7, i32 0, i32 10
  %40 = call noundef ptr @_ZNK6duckdb10shared_ptrINS_16ResizeableBufferELb1EEptEv(ptr noundef nonnull align 8 dereferenceable(16) %39)
  %41 = getelementptr inbounds nuw %"class.duckdb::ByteBuffer", ptr %40, i32 0, i32 0
  %42 = load ptr, ptr %41, align 8, !tbaa !344
  %43 = load ptr, ptr %4, align 8, !tbaa !286
  %44 = getelementptr inbounds nuw %"class.duckdb_parquet::PageHeader", ptr %43, i32 0, i32 3
  %45 = load i32, ptr %44, align 8, !tbaa !307
  %46 = call noundef i32 @_ZN6duckdb13ParquetReader8ReadDataERN13duckdb_apache6thrift8protocol9TProtocolEPhj(ptr noundef nonnull align 8 dereferenceable(560) %36, ptr noundef nonnull align 8 dereferenceable(36) %38, ptr noundef %42, i32 noundef %45)
  br label %84

47:                                               ; preds = %2
  %48 = load ptr, ptr %4, align 8, !tbaa !286
  %49 = getelementptr inbounds nuw %"class.duckdb_parquet::PageHeader", ptr %48, i32 0, i32 3
  %50 = load i32, ptr %49, align 8, !tbaa !307
  %51 = add nsw i32 %50, 1
  %52 = sext i32 %51 to i64
  call void @_ZN6duckdb12ColumnReader18AllocateCompressedEm(ptr noundef nonnull align 8 dereferenceable(544) %7, i64 noundef %52)
  %53 = getelementptr inbounds nuw %"class.duckdb::ColumnReader", ptr %7, i32 0, i32 2
  %54 = load ptr, ptr %53, align 8, !tbaa !112
  %55 = getelementptr inbounds nuw %"class.duckdb::ColumnReader", ptr %7, i32 0, i32 6
  %56 = load ptr, ptr %55, align 8, !tbaa !267
  %57 = getelementptr inbounds nuw %"class.duckdb::ColumnReader", ptr %7, i32 0, i32 11
  %58 = getelementptr inbounds nuw %"class.duckdb::ByteBuffer", ptr %57, i32 0, i32 0
  %59 = load ptr, ptr %58, align 8, !tbaa !344
  %60 = load ptr, ptr %4, align 8, !tbaa !286
  %61 = getelementptr inbounds nuw %"class.duckdb_parquet::PageHeader", ptr %60, i32 0, i32 3
  %62 = load i32, ptr %61, align 8, !tbaa !307
  %63 = call noundef i32 @_ZN6duckdb13ParquetReader8ReadDataERN13duckdb_apache6thrift8protocol9TProtocolEPhj(ptr noundef nonnull align 8 dereferenceable(560) %54, ptr noundef nonnull align 8 dereferenceable(36) %56, ptr noundef %59, i32 noundef %62)
  %64 = getelementptr inbounds nuw %"class.duckdb::ColumnReader", ptr %7, i32 0, i32 5
  %65 = load ptr, ptr %64, align 8, !tbaa !88
  %66 = getelementptr inbounds nuw %"class.duckdb_parquet::ColumnChunk", ptr %65, i32 0, i32 3
  %67 = getelementptr inbounds nuw %"class.duckdb_parquet::ColumnMetaData", ptr %66, i32 0, i32 5
  %68 = load i32, ptr %67, align 8, !tbaa !343
  %69 = getelementptr inbounds nuw %"class.duckdb::ColumnReader", ptr %7, i32 0, i32 11
  %70 = getelementptr inbounds nuw %"class.duckdb::ByteBuffer", ptr %69, i32 0, i32 0
  %71 = load ptr, ptr %70, align 8, !tbaa !344
  %72 = load ptr, ptr %4, align 8, !tbaa !286
  %73 = getelementptr inbounds nuw %"class.duckdb_parquet::PageHeader", ptr %72, i32 0, i32 3
  %74 = load i32, ptr %73, align 8, !tbaa !307
  %75 = sext i32 %74 to i64
  %76 = getelementptr inbounds nuw %"class.duckdb::ColumnReader", ptr %7, i32 0, i32 10
  %77 = call noundef ptr @_ZNK6duckdb10shared_ptrINS_16ResizeableBufferELb1EEptEv(ptr noundef nonnull align 8 dereferenceable(16) %76)
  %78 = getelementptr inbounds nuw %"class.duckdb::ByteBuffer", ptr %77, i32 0, i32 0
  %79 = load ptr, ptr %78, align 8, !tbaa !344
  %80 = load ptr, ptr %4, align 8, !tbaa !286
  %81 = getelementptr inbounds nuw %"class.duckdb_parquet::PageHeader", ptr %80, i32 0, i32 2
  %82 = load i32, ptr %81, align 4, !tbaa !336
  %83 = sext i32 %82 to i64
  call void @_ZN6duckdb12ColumnReader18DecompressInternalEN14duckdb_parquet16CompressionCodec4typeEPKhmPhm(ptr noundef nonnull align 8 dereferenceable(544) %7, i32 noundef %68, ptr noundef %71, i64 noundef %75, ptr noundef %79, i64 noundef %83)
  br label %84

84:                                               ; preds = %47, %34
  ret void

85:                                               ; preds = %30
  %86 = load ptr, ptr %5, align 8
  %87 = load i32, ptr %6, align 4
  %88 = insertvalue { ptr, i32 } poison, ptr %86, 0
  %89 = insertvalue { ptr, i32 } %88, i32 %87, 1
  resume { ptr, i32 } %89
}