; Function Attrs: mustprogress uwtable
define void @_ZN6duckdb12ColumnReader11PreparePageERN14duckdb_parquet10PageHeaderE(ptr noundef nonnull align 8 dereferenceable(544) %0, ptr noundef nonnull readonly align 8 captures(none) dereferenceable(457) %1) local_unnamed_addr #3 align 2 personality ptr @__gxx_personality_v0 {
  %3 = getelementptr inbounds nuw i8, ptr %1, i64 12
  %4 = load i32, ptr %3, align 4, !tbaa !313
  %5 = add nsw i32 %4, 1
  %6 = sext i32 %5 to i64
  tail call void @_ZN6duckdb12ColumnReader13AllocateBlockEm(ptr noundef nonnull align 8 dereferenceable(544) %0, i64 noundef %6)
  %7 = getelementptr inbounds nuw i8, ptr %0, i64 40
  %8 = load ptr, ptr %7, align 8, !tbaa !87
  %9 = getelementptr inbounds nuw i8, ptr %8, i64 112
  %10 = load i32, ptr %9, align 8, !tbaa !314
  %11 = icmp eq i32 %10, 0
  %12 = getelementptr inbounds nuw i8, ptr %1, i64 16
  %13 = load i32, ptr %12, align 8, !tbaa !285
  br i1 %11, label %14, label %31

14:                                               ; preds = %2
  %15 = load i32, ptr %3, align 4, !tbaa !313
  %.not = icmp eq i32 %13, %15
  br i1 %.not, label %21, label %16

16:                                               ; preds = %14
  %17 = tail call ptr @__cxa_allocate_exception(i64 16) #28
  invoke void @_ZNSt13runtime_errorC1EPKc(ptr noundef nonnull align 8 dereferenceable(16) %17, ptr noundef nonnull @.str.7)
          to label %18 unwind label %19

18:                                               ; preds = %16
  tail call void @__cxa_throw(ptr nonnull %17, ptr nonnull @_ZTISt13runtime_error, ptr nonnull @_ZNSt13runtime_errorD1Ev) #30
  unreachable

19:                                               ; preds = %16
  %20 = landingpad { ptr, i32 }
          cleanup
  tail call void @__cxa_free_exception(ptr nonnull %17) #28
  resume { ptr, i32 } %20

21:                                               ; preds = %14
  %22 = getelementptr inbounds nuw i8, ptr %0, i64 16
  %23 = load ptr, ptr %22, align 8, !tbaa !106
  %24 = getelementptr inbounds nuw i8, ptr %0, i64 48
  %25 = load ptr, ptr %24, align 8, !tbaa !259
  %26 = getelementptr inbounds nuw i8, ptr %0, i64 80
  %27 = tail call noundef ptr @_ZNK6duckdb10shared_ptrINS_16ResizeableBufferELb1EEptEv(ptr noundef nonnull align 8 dereferenceable(16) %26)
  %28 = load ptr, ptr %27, align 8, !tbaa !318
  %29 = load i32, ptr %12, align 8, !tbaa !285
  %30 = tail call noundef i32 @_ZN6duckdb13ParquetReader8ReadDataERN13duckdb_apache6thrift8protocol9TProtocolEPhj(ptr noundef nonnull align 8 dereferenceable(560) %23, ptr noundef nonnull align 8 dereferenceable(36) %25, ptr noundef %28, i32 noundef %29)
  br label %53

31:                                               ; preds = %2
  %32 = add nsw i32 %13, 1
  %33 = sext i32 %32 to i64
  tail call void @_ZN6duckdb12ColumnReader18AllocateCompressedEm(ptr noundef nonnull align 8 dereferenceable(544) %0, i64 noundef %33)
  %34 = getelementptr inbounds nuw i8, ptr %0, i64 16
  %35 = load ptr, ptr %34, align 8, !tbaa !106
  %36 = getelementptr inbounds nuw i8, ptr %0, i64 48
  %37 = load ptr, ptr %36, align 8, !tbaa !259
  %38 = getelementptr inbounds nuw i8, ptr %0, i64 96
  %39 = load ptr, ptr %38, align 8, !tbaa !318
  %40 = load i32, ptr %12, align 8, !tbaa !285
  %41 = tail call noundef i32 @_ZN6duckdb13ParquetReader8ReadDataERN13duckdb_apache6thrift8protocol9TProtocolEPhj(ptr noundef nonnull align 8 dereferenceable(560) %35, ptr noundef nonnull align 8 dereferenceable(36) %37, ptr noundef %39, i32 noundef %40)
  %42 = load ptr, ptr %7, align 8, !tbaa !87
  %43 = getelementptr inbounds nuw i8, ptr %42, i64 112
  %44 = load i32, ptr %43, align 8, !tbaa !314
  %45 = load ptr, ptr %38, align 8, !tbaa !318
  %46 = load i32, ptr %12, align 8, !tbaa !285
  %47 = sext i32 %46 to i64
  %48 = getelementptr inbounds nuw i8, ptr %0, i64 80
  %49 = tail call noundef ptr @_ZNK6duckdb10shared_ptrINS_16ResizeableBufferELb1EEptEv(ptr noundef nonnull align 8 dereferenceable(16) %48)
  %50 = load ptr, ptr %49, align 8, !tbaa !318
  %51 = load i32, ptr %3, align 4, !tbaa !313
  %52 = sext i32 %51 to i64
  tail call void @_ZN6duckdb12ColumnReader18DecompressInternalEN14duckdb_parquet16CompressionCodec4typeEPKhmPhm(ptr nonnull align 8 poison, i32 noundef %44, ptr noundef %45, i64 noundef %47, ptr noundef %50, i64 noundef %52)
  br label %53

53:                                               ; preds = %31, %21
  ret void
}